; ModuleID = '43/1856.c'
source_filename = "43/1856.c"
target datalayout = "e-m:e-p270:32:32-p271:32:32-p272:64:64-i64:64-f80:128-n8:16:32:64-S128"
target triple = "x86_64-pc-linux-gnu"

@.str = private unnamed_addr constant [3 x i8] c"%d\00", align 1
@.str.1 = private unnamed_addr constant [7 x i8] c"%d %d\0A\00", align 1

; Function Attrs: noinline nounwind uwtable
define dso_local void @main() #0 {
  %1 = alloca i32, align 4
  %2 = alloca i32, align 4
  %3 = alloca i32, align 4
  %4 = alloca [10000 x i32], align 16
  %5 = bitcast [10000 x i32]* %4 to i8*
  call void @llvm.memset.p0i8.i64(i8* align 16 %5, i8 0, i64 40000, i1 false)
  %6 = call i32 (i8*, ...) @__isoc99_scanf(i8* getelementptr inbounds ([3 x i8], [3 x i8]* @.str, i64 0, i64 0), i32* %1)
  store i32 2, i32* %2, align 4
  br label %7

7:                                                ; preds = %40, %0
  %8 = load i32, i32* %2, align 4
  %9 = load i32, i32* %1, align 4
  %10 = icmp slt i32 %8, %9
  br i1 %10, label %11, label %43

11:                                               ; preds = %7
  %12 = load i32, i32* %2, align 4
  %13 = add nsw i32 %12, 1
  %14 = srem i32 %13, 2
  %15 = icmp ne i32 %14, 0
  br i1 %15, label %16, label %39

16:                                               ; preds = %11
  %17 = load i32, i32* %2, align 4
  %18 = sext i32 %17 to i64
  %19 = getelementptr inbounds [10000 x i32], [10000 x i32]* %4, i64 0, i64 %18
  store i32 1, i32* %19, align 4
  store i32 3, i32* %3, align 4
  br label %20

20:                                               ; preds = %35, %16
  %21 = load i32, i32* %3, align 4
  %22 = load i32, i32* %2, align 4
  %23 = icmp sle i32 %21, %22
  br i1 %23, label %24, label %38

24:                                               ; preds = %20
  %25 = load i32, i32* %2, align 4
  %26 = add nsw i32 %25, 1
  %27 = load i32, i32* %3, align 4
  %28 = srem i32 %26, %27
  %29 = icmp eq i32 %28, 0
  br i1 %29, label %30, label %34

30:                                               ; preds = %24
  %31 = load i32, i32* %2, align 4
  %32 = sext i32 %31 to i64
  %33 = getelementptr inbounds [10000 x i32], [10000 x i32]* %4, i64 0, i64 %32
  store i32 0, i32* %33, align 4
  br label %38

34:                                               ; preds = %24
  br label %35

35:                                               ; preds = %34
  %36 = load i32, i32* %3, align 4
  %37 = add nsw i32 %36, 2
  store i32 %37, i32* %3, align 4
  br label %20

38:                                               ; preds = %30, %20
  br label %39

39:                                               ; preds = %38, %11
  br label %40

40:                                               ; preds = %39
  %41 = load i32, i32* %2, align 4
  %42 = add nsw i32 %41, 2
  store i32 %42, i32* %2, align 4
  br label %7

43:                                               ; preds = %7
  store i32 0, i32* %2, align 4
  br label %44

44:                                               ; preds = %73, %43
  %45 = load i32, i32* %2, align 4
  %46 = load i32, i32* %1, align 4
  %47 = sdiv i32 %46, 2
  %48 = icmp slt i32 %45, %47
  br i1 %48, label %49, label %76

49:                                               ; preds = %44
  %50 = load i32, i32* %2, align 4
  %51 = sext i32 %50 to i64
  %52 = getelementptr inbounds [10000 x i32], [10000 x i32]* %4, i64 0, i64 %51
  %53 = load i32, i32* %52, align 4
  %54 = icmp ne i32 %53, 0
  br i1 %54, label %55, label %72

55:                                               ; preds = %49
  %56 = load i32, i32* %1, align 4
  %57 = sub nsw i32 %56, 2
  %58 = load i32, i32* %2, align 4
  %59 = sub nsw i32 %57, %58
  %60 = sext i32 %59 to i64
  %61 = getelementptr inbounds [10000 x i32], [10000 x i32]* %4, i64 0, i64 %60
  %62 = load i32, i32* %61, align 4
  %63 = icmp ne i32 %62, 0
  br i1 %63, label %64, label %72

64:                                               ; preds = %55
  %65 = load i32, i32* %2, align 4
  %66 = add nsw i32 %65, 1
  %67 = load i32, i32* %1, align 4
  %68 = sub nsw i32 %67, 1
  %69 = load i32, i32* %2, align 4
  %70 = sub nsw i32 %68, %69
  %71 = call i32 (i8*, ...) @printf(i8* getelementptr inbounds ([7 x i8], [7 x i8]* @.str.1, i64 0, i64 0), i32 %66, i32 %70)
  br label %72

72:                                               ; preds = %64, %55, %49
  br label %73

73:                                               ; preds = %72
  %74 = load i32, i32* %2, align 4
  %75 = add nsw i32 %74, 1
  store i32 %75, i32* %2, align 4
  br label %44

76:                                               ; preds = %44
  ret void
}

; Function Attrs: argmemonly nounwind willreturn
declare void @llvm.memset.p0i8.i64(i8* nocapture writeonly, i8, i64, i1 immarg) #1

declare dso_local i32 @__isoc99_scanf(i8*, ...) #2

declare dso_local i32 @printf(i8*, ...) #2


!llvm.module.flags = !{!0}
!llvm.ident = !{!1}

!0 = !{i32 1, !"wchar_size", i32 4}
!1 = !{!"clang version 10.0.0-4ubuntu1 "}
